target datalayout = "e-m:e-p270:32:32-p271:32:32-p272:64:64-i64:64-i128:128-f80:128-n8:16:32:64-S128"
target triple = "x86_64-unknown-linux-gnu"

%struct.NetClientState = type { ptr, i32, %union.anon, ptr, ptr, ptr, ptr, [256 x i8], i8, ptr, i32, i8, i32, i32, i8, i8, i8, %union.anon.0 }
%union.anon = type { %struct.QTailQLink }
%struct.QTailQLink = type { ptr, ptr }
%union.anon.0 = type { %struct.QTailQLink }
%struct.VhostVDPAState = type { %struct.NetClientState, %struct.vhost_vdpa, %struct.Notifier, ptr, ptr, ptr, i8, i8, i8 }
%struct.vhost_vdpa = type { i32, i32, i32, i8, i32, %struct.MemoryListener, %struct.vhost_vdpa_iova_range, i64, i8, i8, i8, ptr, ptr, ptr, ptr, ptr, ptr, [1024 x %struct.VhostVDPAHostNotifier], %struct.anon, %struct.IOMMUNotifier }
%struct.MemoryListener = type { ptr, ptr, ptr, ptr, ptr, ptr, ptr, ptr, ptr, ptr, ptr, ptr, ptr, ptr, ptr, ptr, ptr, i32, ptr, ptr, %union.anon.1, %union.anon.2 }
%union.anon.1 = type { %struct.QTailQLink }
%union.anon.2 = type { %struct.QTailQLink }
%struct.vhost_vdpa_iova_range = type { i64, i64 }
%struct.VhostVDPAHostNotifier = type { %struct.MemoryRegion, ptr }
%struct.MemoryRegion = type { %struct.Object, i8, i8, i8, i8, i8, i8, i8, i8, i8, i8, ptr, ptr, ptr, ptr, ptr, ptr, i32, i128, i64, ptr, i64, i8, i8, i8, i8, i8, ptr, i64, i32, %union.anon.3, %union.anon.4, %union.anon.5, ptr, i32, ptr, ptr, i8 }
%struct.Object = type { ptr, ptr, ptr, i32, ptr }
%union.anon.3 = type { %struct.QTailQLink }
%union.anon.4 = type { %struct.QTailQLink }
%union.anon.5 = type { %struct.QTailQLink }
%struct.anon = type { ptr }
%struct.IOMMUNotifier = type { ptr, i32, i64, i64, i32, %struct.anon.6 }
%struct.anon.6 = type { ptr, ptr }
%struct.Notifier = type { ptr, %struct.anon.7 }
%struct.anon.7 = type { ptr, ptr }
%struct.DeviceState = type { %struct.Object, ptr, ptr, i8, i8, i64, ptr, i32, i8, ptr, %struct.NamedGPIOListHead, %struct.NamedClockListHead, %struct.BusStateHead, i32, i32, i32, %struct.ResettableState, ptr, %struct.MemReentrancyGuard }
%struct.NamedGPIOListHead = type { ptr }
%struct.NamedClockListHead = type { ptr }
%struct.BusStateHead = type { ptr }
%struct.ResettableState = type { i32, i8, i8 }
%struct.MemReentrancyGuard = type { i8 }
%struct.vhost_dev = type { ptr, %struct.MemoryListener, %struct.MemoryListener, ptr, i32, ptr, i32, ptr, ptr, i32, i32, i32, i32, i64, i64, i64, i64, i64, i64, i8, i8, i64, ptr, ptr, ptr, ptr, %struct.anon.11, %struct.anon.12, %struct.IOMMUNotifier, ptr }
%struct.anon.11 = type { ptr, ptr }
%struct.anon.12 = type { ptr }
%struct.NICState = type { ptr, ptr, ptr, ptr, i8 }
%struct.VirtIONet = type { %struct.VirtIODevice, [6 x i8], i16, ptr, ptr, ptr, %union.anon.14, i32, i32, i32, i64, i64, i64, i32, i8, i8, i8, i32, i8, i8, i8, i8, i8, i8, i8, %struct.anon.15, ptr, %struct.virtio_net_conf, %struct.NICConf, ptr, i32, i16, i16, i16, i64, ptr, ptr, i64, i64, %struct.AnnounceTimer, i8, i8, i8, i8, %struct.DeviceListener, ptr, i8, %struct.Notifier, %struct.VirtioNetRssData, ptr, %struct.EBPFRSSContext }
%struct.VirtIODevice = type { %struct.DeviceState, ptr, i8, i8, i16, i64, i64, i64, i64, ptr, i16, i32, i32, ptr, %struct.MemoryListener, i16, i8, i8, i8, i8, i8, i8, i8, i8, i8, ptr, ptr, i8, i8, ptr, ptr, %union.anon.13, %struct.EventNotifier, i8 }
%union.anon.13 = type { %struct.QTailQLink }
%struct.EventNotifier = type { i32, i32, i8 }
%union.anon.14 = type { %struct.QTailQLink }
%struct.anon.15 = type { i32, i32, i8, i8, ptr }
%struct.virtio_net_conf = type { i32, i32, ptr, i16, i16, i16, i32, ptr, i8, ptr }
%struct.NICConf = type { %struct.MACAddr, %struct.NICPeers, i32 }
%struct.MACAddr = type { [6 x i8] }
%struct.NICPeers = type { [1024 x ptr], i32 }
%struct.AnnounceTimer = type { ptr, %struct.AnnounceParameters, i32, i32 }
%struct.AnnounceParameters = type { i64, i64, i64, i64, i8, ptr, ptr }
%struct.DeviceListener = type { ptr, ptr, ptr, %union.anon.16 }
%union.anon.16 = type { %struct.QTailQLink }
%struct.VirtioNetRssData = type { i8, i8, i8, i8, i32, [40 x i8], i16, ptr, i16 }
%struct.EBPFRSSContext = type { ptr, i32, i32, i32, i32 }

@.str.12 = private unnamed_addr constant [34 x i8] c"unable to start vhost net: %s(%d)\00", align 1
@.str.13 = private unnamed_addr constant [18 x i8] c"virtio-net-device\00", align 1
@.str.14 = private unnamed_addr constant [109 x i8] c"/home/dtcxzyw/WorkSpace/Projects/compilers/llvm-opt-benchmark/bench/qemu/qemu/include/hw/virtio/virtio-net.h\00", align 1
@__func__.VIRTIO_NET = private unnamed_addr constant [11 x i8] c"VIRTIO_NET\00", align 1
@.str.15 = private unnamed_addr constant [10 x i8] c"fbit < 64\00", align 1
@.str.16 = private unnamed_addr constant [105 x i8] c"/home/dtcxzyw/WorkSpace/Projects/compilers/llvm-opt-benchmark/bench/qemu/qemu/include/hw/virtio/virtio.h\00", align 1
@__PRETTY_FUNCTION__.virtio_has_feature = private unnamed_addr constant [49 x i8] c"_Bool virtio_has_feature(uint64_t, unsigned int)\00", align 1

; Function Attrs: nounwind sspstrong uwtable
define internal zeroext i1 @virtio_has_feature(i64 noundef %features, i32 noundef %fbit) #0 {
entry:
  %features.addr = alloca i64, align 8
  %fbit.addr = alloca i32, align 4
  store i64 %features, ptr %features.addr, align 8
  store i32 %fbit, ptr %fbit.addr, align 4
  %0 = load i32, ptr %fbit.addr, align 4
  %cmp = icmp ult i32 %0, 64
  br i1 %cmp, label %if.then, label %if.else

if.then:                                          ; preds = %entry
  br label %if.end

if.else:                                          ; preds = %entry
  call void @__assert_fail(ptr noundef @.str.15, ptr noundef @.str.16, i32 noundef 422, ptr noundef @__PRETTY_FUNCTION__.virtio_has_feature) #10
  unreachable

if.end:                                           ; preds = %if.then
  %1 = load i64, ptr %features.addr, align 8
  %2 = load i32, ptr %fbit.addr, align 4
  %sh_prom = zext i32 %2 to i64
  %shl = shl i64 1, %sh_prom
  %and = and i64 %1, %shl
  %tobool = icmp ne i64 %and, 0
  %lnot = xor i1 %tobool, true
  %lnot1 = xor i1 %lnot, true
  ret i1 %lnot1
}

; Function Attrs: nounwind sspstrong uwtable
define internal zeroext i1 @virtio_vdev_has_feature(ptr noundef %vdev, i32 noundef %fbit) #0 {
entry:
  %vdev.addr = alloca ptr, align 8
  %fbit.addr = alloca i32, align 4
  store ptr %vdev, ptr %vdev.addr, align 8
  store i32 %fbit, ptr %fbit.addr, align 4
  %0 = load ptr, ptr %vdev.addr, align 8
  %guest_features = getelementptr inbounds %struct.VirtIODevice, ptr %0, i32 0, i32 6
  %1 = load i64, ptr %guest_features, align 8
  %2 = load i32, ptr %fbit.addr, align 4
  %call = call zeroext i1 @virtio_has_feature(i64 noundef %1, i32 noundef %2)
  ret i1 %call
}

; Function Attrs: nounwind sspstrong uwtable
define internal ptr @VIRTIO_NET(ptr noundef %obj) #0 {
entry:
  %obj.addr = alloca ptr, align 8
  store ptr %obj, ptr %obj.addr, align 8
  %0 = load ptr, ptr %obj.addr, align 8
  %call = call ptr @object_dynamic_cast_assert(ptr noundef %0, ptr noundef @.str.13, ptr noundef @.str.14, i32 noundef 27, ptr noundef @__func__.VIRTIO_NET)
  ret ptr %call
}

; Function Attrs: nounwind sspstrong uwtable
define internal void @vhost_vdpa_net_log_global_enable(ptr noundef %s, i1 noundef zeroext %enable) #0 {
entry:
  %s.addr = alloca ptr, align 8
  %enable.addr = alloca i8, align 1
  %v = alloca ptr, align 8
  %n = alloca ptr, align 8
  %vdev = alloca ptr, align 8
  %data_queue_pairs = alloca i32, align 4
  %cvq = alloca i32, align 4
  %r = alloca i32, align 4
  store ptr %s, ptr %s.addr, align 8
  %frombool = zext i1 %enable to i8
  store i8 %frombool, ptr %enable.addr, align 1
  %0 = load ptr, ptr %s.addr, align 8
  %vhost_vdpa = getelementptr inbounds %struct.VhostVDPAState, ptr %0, i32 0, i32 1
  store ptr %vhost_vdpa, ptr %v, align 8
  %1 = load ptr, ptr %s.addr, align 8
  %vhost_vdpa1 = getelementptr inbounds %struct.VhostVDPAState, ptr %1, i32 0, i32 1
  %shadow_vqs_enabled = getelementptr inbounds %struct.vhost_vdpa, ptr %vhost_vdpa1, i32 0, i32 8
  %2 = load i8, ptr %shadow_vqs_enabled, align 16
  %tobool = trunc i8 %2 to i1
  %conv = zext i1 %tobool to i32
  %3 = load i8, ptr %enable.addr, align 1
  %tobool2 = trunc i8 %3 to i1
  %conv3 = zext i1 %tobool2 to i32
  %cmp = icmp eq i32 %conv, %conv3
  br i1 %cmp, label %if.then, label %if.end

if.then:                                          ; preds = %entry
  br label %if.end32

if.end:                                           ; preds = %entry
  %4 = load ptr, ptr %v, align 8
  %dev = getelementptr inbounds %struct.vhost_vdpa, ptr %4, i32 0, i32 15
  %5 = load ptr, ptr %dev, align 8
  %vdev5 = getelementptr inbounds %struct.vhost_dev, ptr %5, i32 0, i32 0
  %6 = load ptr, ptr %vdev5, align 8
  store ptr %6, ptr %vdev, align 8
  %7 = load ptr, ptr %vdev, align 8
  %call = call ptr @VIRTIO_NET(ptr noundef %7)
  store ptr %call, ptr %n, align 8
  %8 = load ptr, ptr %n, align 8
  %vhost_started = getelementptr inbounds %struct.VirtIONet, ptr %8, i32 0, i32 24
  %9 = load i8, ptr %vhost_started, align 2
  %tobool6 = icmp ne i8 %9, 0
  br i1 %tobool6, label %if.end8, label %if.then7

if.then7:                                         ; preds = %if.end
  br label %if.end32

if.end8:                                          ; preds = %if.end
  %10 = load ptr, ptr %n, align 8
  %multiqueue = getelementptr inbounds %struct.VirtIONet, ptr %10, i32 0, i32 30
  %11 = load i32, ptr %multiqueue, align 8
  %tobool9 = icmp ne i32 %11, 0
  br i1 %tobool9, label %cond.true, label %cond.false

cond.true:                                        ; preds = %if.end8
  %12 = load ptr, ptr %n, align 8
  %max_queue_pairs = getelementptr inbounds %struct.VirtIONet, ptr %12, i32 0, i32 31
  %13 = load i16, ptr %max_queue_pairs, align 4
  %conv10 = zext i16 %13 to i32
  br label %cond.end

cond.false:                                       ; preds = %if.end8
  br label %cond.end

cond.end:                                         ; preds = %cond.false, %cond.true
  %cond = phi i32 [ %conv10, %cond.true ], [ 1, %cond.false ]
  store i32 %cond, ptr %data_queue_pairs, align 4
  %14 = load ptr, ptr %vdev, align 8
  %call11 = call zeroext i1 @virtio_vdev_has_feature(ptr noundef %14, i32 noundef 17)
  br i1 %call11, label %cond.true13, label %cond.false17

cond.true13:                                      ; preds = %cond.end
  %15 = load ptr, ptr %n, align 8
  %max_ncs = getelementptr inbounds %struct.VirtIONet, ptr %15, i32 0, i32 33
  %16 = load i16, ptr %max_ncs, align 8
  %conv14 = zext i16 %16 to i32
  %17 = load ptr, ptr %n, align 8
  %max_queue_pairs15 = getelementptr inbounds %struct.VirtIONet, ptr %17, i32 0, i32 31
  %18 = load i16, ptr %max_queue_pairs15, align 4
  %conv16 = zext i16 %18 to i32
  %sub = sub i32 %conv14, %conv16
  br label %cond.end18

cond.false17:                                     ; preds = %cond.end
  br label %cond.end18

cond.end18:                                       ; preds = %cond.false17, %cond.true13
  %cond19 = phi i32 [ %sub, %cond.true13 ], [ 0, %cond.false17 ]
  store i32 %cond19, ptr %cvq, align 4
  %19 = load ptr, ptr %vdev, align 8
  %20 = load ptr, ptr %n, align 8
  %nic = getelementptr inbounds %struct.VirtIONet, ptr %20, i32 0, i32 5
  %21 = load ptr, ptr %nic, align 8
  %ncs = getelementptr inbounds %struct.NICState, ptr %21, i32 0, i32 0
  %22 = load ptr, ptr %ncs, align 8
  %23 = load i32, ptr %data_queue_pairs, align 4
  %24 = load i32, ptr %cvq, align 4
  call void @vhost_net_stop(ptr noundef %19, ptr noundef %22, i32 noundef %23, i32 noundef %24)
  %25 = load ptr, ptr %vdev, align 8
  %26 = load ptr, ptr %n, align 8
  %nic20 = getelementptr inbounds %struct.VirtIONet, ptr %26, i32 0, i32 5
  %27 = load ptr, ptr %nic20, align 8
  %ncs21 = getelementptr inbounds %struct.NICState, ptr %27, i32 0, i32 0
  %28 = load ptr, ptr %ncs21, align 8
  %29 = load i32, ptr %data_queue_pairs, align 4
  %30 = load i32, ptr %cvq, align 4
  %call22 = call i32 @vhost_net_start(ptr noundef %25, ptr noundef %28, i32 noundef %29, i32 noundef %30)
  store i32 %call22, ptr %r, align 4
  %31 = load i32, ptr %r, align 4
  %cmp23 = icmp slt i32 %31, 0
  %lnot = xor i1 %cmp23, true
  %lnot25 = xor i1 %lnot, true
  %lnot.ext = zext i1 %lnot25 to i32
  %conv26 = sext i32 %lnot.ext to i64
  %tobool27 = icmp ne i64 %conv26, 0
  br i1 %tobool27, label %if.then28, label %if.end32

if.then28:                                        ; preds = %cond.end18
  %32 = load i32, ptr %r, align 4
  %sub29 = sub i32 0, %32
  %call30 = call ptr @g_strerror(i32 noundef %sub29) #11
  %33 = load i32, ptr %r, align 4
  %sub31 = sub i32 0, %33
  call void (ptr, ...) @error_report(ptr noundef @.str.12, ptr noundef %call30, i32 noundef %sub31)
  br label %if.end32

if.end32:                                         ; preds = %if.then28, %cond.end18, %if.then7, %if.then
  ret void
}