; Function Attrs: nounwind sspstrong uwtable
define internal fastcc void @vhost_vdpa_net_log_global_enable(ptr noundef readonly captures(none) %s, i1 noundef zeroext %enable) unnamed_addr #0 {
entry:
  %shadow_vqs_enabled = getelementptr inbounds nuw i8, ptr %s, i64 624
  %0 = load i8, ptr %shadow_vqs_enabled, align 16
  %1 = trunc i8 %0 to i1
  %2 = xor i1 %enable, %1
  br i1 %2, label %if.end, label %if.end32

if.end:                                           ; preds = %entry
  %dev = getelementptr inbounds nuw i8, ptr %s, i64 664
  %3 = load ptr, ptr %dev, align 8
  %4 = load ptr, ptr %3, align 8
  %call.i = tail call ptr @object_dynamic_cast_assert(ptr noundef %4, ptr noundef nonnull @.str.13, ptr noundef nonnull @.str.14, i32 noundef 27, ptr noundef nonnull @__func__.VIRTIO_NET) #13
  %vhost_started = getelementptr inbounds nuw i8, ptr %call.i, i64 626
  %5 = load i8, ptr %vhost_started, align 2
  %tobool6.not = icmp eq i8 %5, 0
  br i1 %tobool6.not, label %if.end32, label %if.end8

if.end8:                                          ; preds = %if.end
  %multiqueue = getelementptr inbounds nuw i8, ptr %call.i, i64 8944
  %6 = load i32, ptr %multiqueue, align 8
  %tobool9.not = icmp eq i32 %6, 0
  br i1 %tobool9.not, label %cond.end, label %cond.true

cond.true:                                        ; preds = %if.end8
  %max_queue_pairs = getelementptr inbounds nuw i8, ptr %call.i, i64 8948
  %7 = load i16, ptr %max_queue_pairs, align 4
  %conv10 = zext i16 %7 to i32
  br label %cond.end

cond.end:                                         ; preds = %if.end8, %cond.true
  %cond = phi i32 [ %conv10, %cond.true ], [ 1, %if.end8 ]
  %8 = getelementptr i8, ptr %4, i64 184
  %.val = load i64, ptr %8, align 8
  %and.i.i = and i64 %.val, 131072
  %tobool.i.i.not = icmp eq i64 %and.i.i, 0
  br i1 %tobool.i.i.not, label %cond.end18, label %cond.true13

cond.true13:                                      ; preds = %cond.end
  %max_ncs = getelementptr inbounds nuw i8, ptr %call.i, i64 8952
  %9 = load i16, ptr %max_ncs, align 8
  %conv14 = zext i16 %9 to i32
  %max_queue_pairs15 = getelementptr inbounds nuw i8, ptr %call.i, i64 8948
  %10 = load i16, ptr %max_queue_pairs15, align 4
  %conv16 = zext i16 %10 to i32
  %sub = sub nsw i32 %conv14, %conv16
  br label %cond.end18

cond.end18:                                       ; preds = %cond.end, %cond.true13
  %cond19 = phi i32 [ %sub, %cond.true13 ], [ 0, %cond.end ]
  %nic = getelementptr inbounds nuw i8, ptr %call.i, i64 544
  %11 = load ptr, ptr %nic, align 8
  %12 = load ptr, ptr %11, align 8
  tail call void @vhost_net_stop(ptr noundef nonnull %4, ptr noundef %12, i32 noundef %cond, i32 noundef %cond19) #13
  %13 = load ptr, ptr %nic, align 8
  %14 = load ptr, ptr %13, align 8
  %call22 = tail call i32 @vhost_net_start(ptr noundef nonnull %4, ptr noundef %14, i32 noundef %cond, i32 noundef %cond19) #13
  %cmp23 = icmp slt i32 %call22, 0
  br i1 %cmp23, label %if.then28, label %if.end32

if.then28:                                        ; preds = %cond.end18
  %sub29 = sub i32 0, %call22
  %call30 = tail call ptr @g_strerror(i32 noundef %sub29) #14
  tail call void (ptr, ...) @error_report(ptr noundef nonnull @.str.12, ptr noundef %call30, i32 noundef %sub29) #13
  br label %if.end32

if.end32:                                         ; preds = %if.end, %entry, %if.then28, %cond.end18
  ret void
}